; Function Attrs: mustprogress nounwind uwtable
define dso_local void @_ZN6EffectD2Ev(ptr noundef nonnull readonly align 8 captures(none) dereferenceable(74) %0) unnamed_addr #6 align 2 personality ptr @__gxx_personality_v0 {
  %2 = getelementptr inbounds nuw i8, ptr %0, i64 48
  %3 = load ptr, ptr %2, align 8, !tbaa !17
  %.not.i.i.i = icmp eq ptr %3, null
  br i1 %.not.i.i.i, label %_ZNSt6vectorIPK8VariableSaIS2_EED2Ev.exit, label %4

4:                                                ; preds = %1
  %5 = getelementptr inbounds nuw i8, ptr %0, i64 64
  %6 = load ptr, ptr %5, align 8, !tbaa !19
  %7 = ptrtoint ptr %6 to i64
  %8 = ptrtoint ptr %3 to i64
  %9 = sub i64 %7, %8
  tail call void @_ZdlPvm(ptr noundef nonnull %3, i64 noundef %9) #24
  br label %_ZNSt6vectorIPK8VariableSaIS2_EED2Ev.exit

_ZNSt6vectorIPK8VariableSaIS2_EED2Ev.exit:        ; preds = %1, %4
  %10 = getelementptr inbounds nuw i8, ptr %0, i64 24
  %11 = load ptr, ptr %10, align 8, !tbaa !17
  %.not.i.i.i1 = icmp eq ptr %11, null
  br i1 %.not.i.i.i1, label %_ZNSt6vectorIPK8VariableSaIS2_EED2Ev.exit2, label %12

12:                                               ; preds = %_ZNSt6vectorIPK8VariableSaIS2_EED2Ev.exit
  %13 = getelementptr inbounds nuw i8, ptr %0, i64 40
  %14 = load ptr, ptr %13, align 8, !tbaa !19
  %15 = ptrtoint ptr %14 to i64
  %16 = ptrtoint ptr %11 to i64
  %17 = sub i64 %15, %16
  tail call void @_ZdlPvm(ptr noundef nonnull %11, i64 noundef %17) #24
  br label %_ZNSt6vectorIPK8VariableSaIS2_EED2Ev.exit2

_ZNSt6vectorIPK8VariableSaIS2_EED2Ev.exit2:       ; preds = %_ZNSt6vectorIPK8VariableSaIS2_EED2Ev.exit, %12
  %18 = load ptr, ptr %0, align 8, !tbaa !17
  %.not.i.i.i3 = icmp eq ptr %18, null
  br i1 %.not.i.i.i3, label %_ZNSt6vectorIPK8VariableSaIS2_EED2Ev.exit4, label %19

19:                                               ; preds = %_ZNSt6vectorIPK8VariableSaIS2_EED2Ev.exit2
  %20 = getelementptr inbounds nuw i8, ptr %0, i64 16
  %21 = load ptr, ptr %20, align 8, !tbaa !19
  %22 = ptrtoint ptr %21 to i64
  %23 = ptrtoint ptr %18 to i64
  %24 = sub i64 %22, %23
  tail call void @_ZdlPvm(ptr noundef nonnull %18, i64 noundef %24) #24
  br label %_ZNSt6vectorIPK8VariableSaIS2_EED2Ev.exit4

_ZNSt6vectorIPK8VariableSaIS2_EED2Ev.exit4:       ; preds = %_ZNSt6vectorIPK8VariableSaIS2_EED2Ev.exit2, %19
  ret void
}